; Function Attrs: mustprogress uwtable
define void @_ZNK32pxrInternal_v0_24__pxrReserved__9UsdObject22GetAllAuthoredMetadataEv(ptr dead_on_unwind noalias writable sret(%"class.std::map") align 8 %0, ptr noundef nonnull align 8 dereferenceable(32) %1) local_unnamed_addr #0 align 2 personality ptr @__gxx_personality_v0 {
  %3 = getelementptr inbounds i8, ptr %0, i64 8
  store i32 0, ptr %3, align 8
  %4 = getelementptr inbounds i8, ptr %0, i64 16
  store ptr null, ptr %4, align 8
  %5 = getelementptr inbounds i8, ptr %0, i64 24
  store ptr %3, ptr %5, align 8
  %6 = getelementptr inbounds i8, ptr %0, i64 32
  store ptr %3, ptr %6, align 8
  %7 = getelementptr inbounds i8, ptr %0, i64 40
  store i64 0, ptr %7, align 8
  %8 = getelementptr inbounds nuw i8, ptr %1, i64 8
  %9 = load ptr, ptr %8, align 8
  %.not.i.i = icmp eq ptr %9, null
  br i1 %.not.i.i, label %14, label %10

10:                                               ; preds = %2
  %11 = getelementptr inbounds nuw i8, ptr %9, i64 56
  %12 = load i64, ptr %11, align 8
  %13 = and i64 %12, 2048
  %.not5.i.i = icmp eq i64 %13, 0
  br i1 %.not5.i.i, label %15, label %14

14:                                               ; preds = %10, %2
  invoke void @_ZN32pxrInternal_v0_24__pxrReserved__31Usd_ThrowExpiredPrimAccessErrorEPKNS_12Usd_PrimDataE(ptr noundef %9)
          to label %15 unwind label %17

15:                                               ; preds = %10, %14
  %16 = load ptr, ptr %9, align 8
  invoke void @_ZNK32pxrInternal_v0_24__pxrReserved__8UsdStage15_GetAllMetadataERKNS_9UsdObjectEbPSt3mapINS_7TfTokenENS_7VtValueENS_20TfDictionaryLessThanESaISt4pairIKS5_S6_EEEb(ptr noundef nonnull align 8 dereferenceable(1282) %16, ptr noundef nonnull align 8 dereferenceable(32) %1, i1 noundef zeroext false, ptr noundef nonnull %0, i1 noundef zeroext false)
          to label %19 unwind label %17

17:                                               ; preds = %14, %15
  %18 = landingpad { ptr, i32 }
          cleanup
  tail call void @_ZNSt3mapIN32pxrInternal_v0_24__pxrReserved__7TfTokenENS0_7VtValueENS0_20TfDictionaryLessThanESaISt4pairIKS1_S2_EEED2Ev(ptr noundef nonnull align 8 dereferenceable(48) %0) #14
  resume { ptr, i32 } %18

19:                                               ; preds = %15
  ret void
}